; Function Attrs: mustprogress nounwind uwtable
define dso_local noundef zeroext i1 @_ZNK18cmCTestTestHandler30cmCTestTestResourceRequirementneERKS0_(ptr noundef nonnull align 8 dereferenceable(40) %0, ptr noundef nonnull align 8 dereferenceable(40) %1) local_unnamed_addr #4 align 2 {
  %3 = tail call noundef i64 @_ZNKSt7__cxx1112basic_stringIcSt11char_traitsIcESaIcEE4sizeEv(ptr noundef nonnull align 8 dereferenceable(32) %0) #25
  %4 = tail call noundef i64 @_ZNKSt7__cxx1112basic_stringIcSt11char_traitsIcESaIcEE4sizeEv(ptr noundef nonnull align 8 dereferenceable(32) %1) #25
  %5 = icmp eq i64 %3, %4
  br i1 %5, label %6, label %_ZNK18cmCTestTestHandler30cmCTestTestResourceRequirementeqERKS0_.exit

6:                                                ; preds = %2
  %7 = tail call noundef ptr @_ZNKSt7__cxx1112basic_stringIcSt11char_traitsIcESaIcEE4dataEv(ptr noundef nonnull align 8 dereferenceable(32) %0) #25
  %8 = tail call noundef ptr @_ZNKSt7__cxx1112basic_stringIcSt11char_traitsIcESaIcEE4dataEv(ptr noundef nonnull align 8 dereferenceable(32) %1) #25
  %9 = tail call noundef i64 @_ZNKSt7__cxx1112basic_stringIcSt11char_traitsIcESaIcEE4sizeEv(ptr noundef nonnull align 8 dereferenceable(32) %0) #25
  %10 = icmp eq i64 %9, 0
  br i1 %10, label %_ZSteqIcEN9__gnu_cxx11__enable_ifIXsr9__is_charIT_EE7__valueEbE6__typeERKNSt7__cxx1112basic_stringIS2_St11char_traitsIS2_ESaIS2_EEESC_.exit.thread.i, label %_ZSteqIcEN9__gnu_cxx11__enable_ifIXsr9__is_charIT_EE7__valueEbE6__typeERKNSt7__cxx1112basic_stringIS2_St11char_traitsIS2_ESaIS2_EEESC_.exit.i

_ZSteqIcEN9__gnu_cxx11__enable_ifIXsr9__is_charIT_EE7__valueEbE6__typeERKNSt7__cxx1112basic_stringIS2_St11char_traitsIS2_ESaIS2_EEESC_.exit.i: ; preds = %6
  %bcmp.i.i = tail call i32 @bcmp(ptr %7, ptr %8, i64 %9)
  %11 = icmp eq i32 %bcmp.i.i, 0
  br i1 %11, label %_ZSteqIcEN9__gnu_cxx11__enable_ifIXsr9__is_charIT_EE7__valueEbE6__typeERKNSt7__cxx1112basic_stringIS2_St11char_traitsIS2_ESaIS2_EEESC_.exit.thread.i, label %_ZNK18cmCTestTestHandler30cmCTestTestResourceRequirementeqERKS0_.exit

_ZSteqIcEN9__gnu_cxx11__enable_ifIXsr9__is_charIT_EE7__valueEbE6__typeERKNSt7__cxx1112basic_stringIS2_St11char_traitsIS2_ESaIS2_EEESC_.exit.thread.i: ; preds = %_ZSteqIcEN9__gnu_cxx11__enable_ifIXsr9__is_charIT_EE7__valueEbE6__typeERKNSt7__cxx1112basic_stringIS2_St11char_traitsIS2_ESaIS2_EEESC_.exit.i, %6
  %12 = getelementptr inbounds i8, ptr %0, i64 32
  %13 = load i32, ptr %12, align 8
  %14 = getelementptr inbounds i8, ptr %1, i64 32
  %15 = load i32, ptr %14, align 8
  %16 = icmp eq i32 %13, %15
  br i1 %16, label %17, label %_ZNK18cmCTestTestHandler30cmCTestTestResourceRequirementeqERKS0_.exit

17:                                               ; preds = %_ZSteqIcEN9__gnu_cxx11__enable_ifIXsr9__is_charIT_EE7__valueEbE6__typeERKNSt7__cxx1112basic_stringIS2_St11char_traitsIS2_ESaIS2_EEESC_.exit.thread.i
  %18 = getelementptr inbounds i8, ptr %0, i64 36
  %19 = load i32, ptr %18, align 4
  %20 = getelementptr inbounds i8, ptr %1, i64 36
  %21 = load i32, ptr %20, align 4
  %22 = icmp ne i32 %19, %21
  br label %_ZNK18cmCTestTestHandler30cmCTestTestResourceRequirementeqERKS0_.exit

_ZNK18cmCTestTestHandler30cmCTestTestResourceRequirementeqERKS0_.exit: ; preds = %2, %_ZSteqIcEN9__gnu_cxx11__enable_ifIXsr9__is_charIT_EE7__valueEbE6__typeERKNSt7__cxx1112basic_stringIS2_St11char_traitsIS2_ESaIS2_EEESC_.exit.i, %_ZSteqIcEN9__gnu_cxx11__enable_ifIXsr9__is_charIT_EE7__valueEbE6__typeERKNSt7__cxx1112basic_stringIS2_St11char_traitsIS2_ESaIS2_EEESC_.exit.thread.i, %17
  %23 = phi i1 [ true, %_ZSteqIcEN9__gnu_cxx11__enable_ifIXsr9__is_charIT_EE7__valueEbE6__typeERKNSt7__cxx1112basic_stringIS2_St11char_traitsIS2_ESaIS2_EEESC_.exit.thread.i ], [ true, %_ZSteqIcEN9__gnu_cxx11__enable_ifIXsr9__is_charIT_EE7__valueEbE6__typeERKNSt7__cxx1112basic_stringIS2_St11char_traitsIS2_ESaIS2_EEESC_.exit.i ], [ %22, %17 ], [ true, %2 ]
  ret i1 %23
}